#include <math.h>
#include <stdio.h>
#include <stdlib.h>
#include <string.h>
#include <iostream>
using namespace std;

//*???????????
//*??????
//*?????2010?10?
//*????????????

int main()
{
	int a, n, i;
	int f[20001] = {0};                //?0
	cin >> n;
	for(i = 1; i <= n; i++)
	{   
		cin >> a;
		if(f[a] == 0)                  //??0?????????????
		{
			if(i == 1)
			   cout << a;
		    else
			   cout << " " << a;
			f[a] = 1;                  //a???????1
		}
	}
	return 0;
}